target datalayout = "e-m:e-p270:32:32-p271:32:32-p272:64:64-i64:64-i128:128-f80:128-n8:16:32:64-S128"
target triple = "x86_64-pc-linux-gnu"

%"class.std::__cxx11::basic_string" = type { %"struct.std::__cxx11::basic_string<char>::_Alloc_hider", i64, %union.anon }
%"struct.std::__cxx11::basic_string<char>::_Alloc_hider" = type { ptr }
%union.anon = type { i64, [8 x i8] }
%struct.aiString = type { i32, [1024 x i8] }
%"class.std::__shared_count" = type { ptr }
%class.aiVector2t = type { float, float }
%"class.std::__shared_ptr.63" = type { ptr, %"class.std::__shared_count" }
%"struct.Assimp::COB::Texture" = type <{ %"class.std::__cxx11::basic_string", %struct.aiUVTransform, [4 x i8] }>
%struct.aiUVTransform = type { %class.aiVector2t, %class.aiVector2t, float }

@.str.9 = private unnamed_addr constant [10 x i8] c"$tex.file\00", align 1
@.str.10 = private unnamed_addr constant [13 x i8] c"$tex.uvtrafo\00", align 1

; Function Attrs: mustprogress nounwind uwtable
define available_externally noundef ptr @_ZNKSt7__cxx1112basic_stringIcSt11char_traitsIcESaIcEE7_M_dataEv(ptr noundef nonnull align 8 dereferenceable(32) %0) #3 align 2 {
  %2 = alloca ptr, align 8
  store ptr %0, ptr %2, align 8
  %3 = load ptr, ptr %2, align 8
  %4 = getelementptr inbounds nuw %"class.std::__cxx11::basic_string", ptr %3, i32 0, i32 0
  %5 = getelementptr inbounds nuw %"struct.std::__cxx11::basic_string<char>::_Alloc_hider", ptr %4, i32 0, i32 0
  %6 = load ptr, ptr %5, align 8
  ret ptr %6
}

; Function Attrs: mustprogress nounwind uwtable
define linkonce_odr hidden noundef ptr @_ZNKSt12__shared_ptrIN6Assimp3COB7TextureELN9__gnu_cxx12_Lock_policyE2EE3getEv(ptr noundef nonnull align 8 dereferenceable(16) %0) #3 comdat align 2 {
  %2 = alloca ptr, align 8
  store ptr %0, ptr %2, align 8
  %3 = load ptr, ptr %2, align 8
  %4 = getelementptr inbounds nuw %"class.std::__shared_ptr.63", ptr %3, i32 0, i32 0
  %5 = load ptr, ptr %4, align 8
  ret ptr %5
}

; Function Attrs: inlinehint mustprogress nounwind uwtable
define linkonce_odr hidden noundef i32 @_Z29ai_real_to_property_type_infof(float noundef %0) #11 comdat {
  %2 = alloca float, align 4
  store float %0, ptr %2, align 4
  ret i32 1
}

; Function Attrs: mustprogress nounwind uwtable
define available_externally noundef ptr @_ZNKSt7__cxx1112basic_stringIcSt11char_traitsIcESaIcEE5c_strEv(ptr noundef nonnull align 8 dereferenceable(32) %0) #3 align 2 {
  %2 = alloca ptr, align 8
  store ptr %0, ptr %2, align 8
  %3 = load ptr, ptr %2, align 8
  %4 = call noundef ptr @_ZNKSt7__cxx1112basic_stringIcSt11char_traitsIcESaIcEE7_M_dataEv(ptr noundef nonnull align 8 dereferenceable(32) %3)
  ret ptr %4
}

; Function Attrs: mustprogress nounwind uwtable
define available_externally noundef i64 @_ZNKSt7__cxx1112basic_stringIcSt11char_traitsIcESaIcEE6lengthEv(ptr noundef nonnull align 8 dereferenceable(32) %0) #3 align 2 {
  %2 = alloca ptr, align 8
  store ptr %0, ptr %2, align 8
  %3 = load ptr, ptr %2, align 8
  %4 = getelementptr inbounds nuw %"class.std::__cxx11::basic_string", ptr %3, i32 0, i32 1
  %5 = load i64, ptr %4, align 8
  ret i64 %5
}

; Function Attrs: mustprogress nounwind uwtable
define linkonce_odr hidden noundef ptr @_ZNKSt19__shared_ptr_accessIN6Assimp3COB7TextureELN9__gnu_cxx12_Lock_policyE2ELb0ELb0EE6_M_getEv(ptr noundef nonnull align 1 dereferenceable(1) %0) #3 comdat align 2 {
  %2 = alloca ptr, align 8
  store ptr %0, ptr %2, align 8
  %3 = load ptr, ptr %2, align 8
  %4 = call noundef ptr @_ZNKSt12__shared_ptrIN6Assimp3COB7TextureELN9__gnu_cxx12_Lock_policyE2EE3getEv(ptr noundef nonnull align 8 dereferenceable(16) %3) #22
  ret ptr %4
}

; Function Attrs: inlinehint mustprogress uwtable
define linkonce_odr noundef i32 @_ZN10aiMaterial11AddPropertyEPK13aiUVTransformjPKcjj(ptr noundef nonnull align 8 dereferenceable(16) %0, ptr noundef %1, i32 noundef %2, ptr noundef %3, i32 noundef %4, i32 noundef %5) #7 comdat align 2 {
  %7 = alloca ptr, align 8
  %8 = alloca ptr, align 8
  %9 = alloca i32, align 4
  %10 = alloca ptr, align 8
  %11 = alloca i32, align 4
  %12 = alloca i32, align 4
  store ptr %0, ptr %7, align 8
  store ptr %1, ptr %8, align 8
  store i32 %2, ptr %9, align 4
  store ptr %3, ptr %10, align 8
  store i32 %4, ptr %11, align 4
  store i32 %5, ptr %12, align 4
  %13 = load ptr, ptr %7, align 8
  %14 = load ptr, ptr %8, align 8
  %15 = load i32, ptr %9, align 4
  %16 = zext i32 %15 to i64
  %17 = mul i64 %16, 20
  %18 = trunc i64 %17 to i32
  %19 = load ptr, ptr %10, align 8
  %20 = load i32, ptr %11, align 4
  %21 = load i32, ptr %12, align 4
  %22 = load ptr, ptr %8, align 8
  %23 = getelementptr inbounds nuw %struct.aiUVTransform, ptr %22, i32 0, i32 2
  %24 = load float, ptr %23, align 4
  %25 = call noundef i32 @_Z29ai_real_to_property_type_infof(float noundef %24)
  %26 = call noundef i32 @_ZN10aiMaterial17AddBinaryPropertyEPKvjPKcjj18aiPropertyTypeInfo(ptr noundef nonnull align 8 dereferenceable(16) %13, ptr noundef %14, i32 noundef %18, ptr noundef %19, i32 noundef %20, i32 noundef %21, i32 noundef %25)
  ret i32 %26
}

; Function Attrs: mustprogress nounwind uwtable
define linkonce_odr hidden void @_ZN8aiStringC2ERKNSt7__cxx1112basic_stringIcSt11char_traitsIcESaIcEEE(ptr noundef nonnull align 4 dereferenceable(1028) %0, ptr noundef nonnull align 8 dereferenceable(32) %1) unnamed_addr #3 comdat align 2 {
  %3 = alloca ptr, align 8
  %4 = alloca ptr, align 8
  store ptr %0, ptr %3, align 8
  store ptr %1, ptr %4, align 8
  %5 = load ptr, ptr %3, align 8
  %6 = getelementptr inbounds nuw %struct.aiString, ptr %5, i32 0, i32 0
  %7 = load ptr, ptr %4, align 8
  %8 = call noundef i64 @_ZNKSt7__cxx1112basic_stringIcSt11char_traitsIcESaIcEE6lengthEv(ptr noundef nonnull align 8 dereferenceable(32) %7) #22
  %9 = trunc i64 %8 to i32
  store i32 %9, ptr %6, align 4
  %10 = getelementptr inbounds nuw %struct.aiString, ptr %5, i32 0, i32 1
  call void @llvm.memset.p0.i64(ptr align 4 %10, i8 0, i64 1024, i1 false)
  %11 = getelementptr inbounds nuw %struct.aiString, ptr %5, i32 0, i32 0
  %12 = load i32, ptr %11, align 4
  %13 = zext i32 %12 to i64
  %14 = icmp uge i64 %13, 1024
  br i1 %14, label %15, label %16

15:                                               ; preds = %2
  br label %20

16:                                               ; preds = %2
  %17 = getelementptr inbounds nuw %struct.aiString, ptr %5, i32 0, i32 0
  %18 = load i32, ptr %17, align 4
  %19 = zext i32 %18 to i64
  br label %20

20:                                               ; preds = %16, %15
  %21 = phi i64 [ 1023, %15 ], [ %19, %16 ]
  %22 = trunc i64 %21 to i32
  %23 = getelementptr inbounds nuw %struct.aiString, ptr %5, i32 0, i32 0
  store i32 %22, ptr %23, align 4
  %24 = getelementptr inbounds nuw %struct.aiString, ptr %5, i32 0, i32 1
  %25 = getelementptr inbounds [1024 x i8], ptr %24, i64 0, i64 0
  %26 = load ptr, ptr %4, align 8
  %27 = call noundef ptr @_ZNKSt7__cxx1112basic_stringIcSt11char_traitsIcESaIcEE5c_strEv(ptr noundef nonnull align 8 dereferenceable(32) %26) #22
  %28 = getelementptr inbounds nuw %struct.aiString, ptr %5, i32 0, i32 0
  %29 = load i32, ptr %28, align 4
  %30 = zext i32 %29 to i64
  call void @llvm.memcpy.p0.p0.i64(ptr align 4 %25, ptr align 1 %27, i64 %30, i1 false)
  %31 = getelementptr inbounds nuw %struct.aiString, ptr %5, i32 0, i32 1
  %32 = getelementptr inbounds nuw %struct.aiString, ptr %5, i32 0, i32 0
  %33 = load i32, ptr %32, align 4
  %34 = zext i32 %33 to i64
  %35 = getelementptr inbounds nuw [1024 x i8], ptr %31, i64 0, i64 %34
  store i8 0, ptr %35, align 1
  ret void
}

; Function Attrs: mustprogress nounwind uwtable
define linkonce_odr hidden noundef ptr @_ZNKSt19__shared_ptr_accessIN6Assimp3COB7TextureELN9__gnu_cxx12_Lock_policyE2ELb0ELb0EEptEv(ptr noundef nonnull align 1 dereferenceable(1) %0) #3 comdat align 2 {
  %2 = alloca ptr, align 8
  store ptr %0, ptr %2, align 8
  %3 = load ptr, ptr %2, align 8
  %4 = call noundef ptr @_ZNKSt19__shared_ptr_accessIN6Assimp3COB7TextureELN9__gnu_cxx12_Lock_policyE2ELb0ELb0EE6_M_getEv(ptr noundef nonnull align 1 dereferenceable(1) %3) #22
  ret ptr %4
}

; Function Attrs: mustprogress uwtable
define hidden void @_ZN6Assimp14ConvertTextureERKSt10shared_ptrINS_3COB7TextureEEP10aiMaterial13aiTextureType(ptr noundef nonnull align 8 dereferenceable(16) %0, ptr noundef %1, i32 noundef %2) #1 {
  %4 = alloca ptr, align 8
  %5 = alloca ptr, align 8
  %6 = alloca i32, align 4
  %7 = alloca %struct.aiString, align 4
  store ptr %0, ptr %4, align 8
  store ptr %1, ptr %5, align 8
  store i32 %2, ptr %6, align 4
  call void @llvm.lifetime.start.p0(i64 1028, ptr %7) #22
  %8 = load ptr, ptr %4, align 8
  %9 = call noundef ptr @_ZNKSt19__shared_ptr_accessIN6Assimp3COB7TextureELN9__gnu_cxx12_Lock_policyE2ELb0ELb0EEptEv(ptr noundef nonnull align 1 dereferenceable(1) %8) #22
  %10 = getelementptr inbounds nuw %"struct.Assimp::COB::Texture", ptr %9, i32 0, i32 0
  call void @_ZN8aiStringC2ERKNSt7__cxx1112basic_stringIcSt11char_traitsIcESaIcEEE(ptr noundef nonnull align 4 dereferenceable(1028) %7, ptr noundef nonnull align 8 dereferenceable(32) %10)
  %11 = load ptr, ptr %5, align 8
  %12 = load i32, ptr %6, align 4
  %13 = call noundef i32 @_ZN10aiMaterial11AddPropertyEPK8aiStringPKcjj(ptr noundef nonnull align 8 dereferenceable(16) %11, ptr noundef %7, ptr noundef @.str.9, i32 noundef %12, i32 noundef 0)
  %14 = load ptr, ptr %5, align 8
  %15 = load ptr, ptr %4, align 8
  %16 = call noundef ptr @_ZNKSt19__shared_ptr_accessIN6Assimp3COB7TextureELN9__gnu_cxx12_Lock_policyE2ELb0ELb0EEptEv(ptr noundef nonnull align 1 dereferenceable(1) %15) #22
  %17 = getelementptr inbounds nuw %"struct.Assimp::COB::Texture", ptr %16, i32 0, i32 1
  %18 = load i32, ptr %6, align 4
  %19 = call noundef i32 @_ZN10aiMaterial11AddPropertyEPK13aiUVTransformjPKcjj(ptr noundef nonnull align 8 dereferenceable(16) %14, ptr noundef %17, i32 noundef 1, ptr noundef @.str.10, i32 noundef %18, i32 noundef 0)
  call void @llvm.lifetime.end.p0(i64 1028, ptr %7) #22
  ret void
}