; Function Attrs: mustprogress uwtable
define hidden void @_ZN6Assimp14ConvertTextureERKSt10shared_ptrINS_3COB7TextureEEP10aiMaterial13aiTextureType(ptr noundef nonnull readonly align 8 captures(none) dereferenceable(16) %0, ptr noundef nonnull %1, i32 noundef %2) local_unnamed_addr #0 {
  %4 = alloca %struct.aiString, align 4
  call void @llvm.lifetime.start.p0(i64 1028, ptr nonnull %4) #27
  %5 = load ptr, ptr %0, align 8
  %6 = getelementptr inbounds nuw i8, ptr %5, i64 8
  %7 = load i64, ptr %6, align 8
  %8 = trunc i64 %7 to i32
  %9 = getelementptr inbounds nuw i8, ptr %4, i64 4
  call void @llvm.memset.p0.i64(ptr noundef nonnull align 4 dereferenceable(1024) %9, i8 0, i64 1024, i1 false)
  %10 = and i64 %7, 4294966272
  %.not.i = icmp eq i64 %10, 0
  %spec.select.i = select i1 %.not.i, i32 %8, i32 1023
  store i32 %spec.select.i, ptr %4, align 4
  %11 = load ptr, ptr %5, align 8
  %12 = zext i32 %spec.select.i to i64
  call void @llvm.memcpy.p0.p0.i64(ptr nonnull align 4 %9, ptr align 1 %11, i64 %12, i1 false)
  %13 = getelementptr inbounds nuw [1024 x i8], ptr %9, i64 0, i64 %12
  store i8 0, ptr %13, align 1
  %14 = call noundef i32 @_ZN10aiMaterial11AddPropertyEPK8aiStringPKcjj(ptr noundef nonnull align 8 dereferenceable(16) %1, ptr noundef nonnull %4, ptr noundef nonnull @.str.9, i32 noundef %2, i32 noundef 0)
  %15 = load ptr, ptr %0, align 8
  %16 = getelementptr inbounds nuw i8, ptr %15, i64 32
  %17 = call noundef i32 @_ZN10aiMaterial17AddBinaryPropertyEPKvjPKcjj18aiPropertyTypeInfo(ptr noundef nonnull align 8 dereferenceable(16) %1, ptr noundef nonnull %16, i32 noundef 20, ptr noundef nonnull @.str.10, i32 noundef %2, i32 noundef 0, i32 noundef 1)
  call void @llvm.lifetime.end.p0(i64 1028, ptr nonnull %4) #27
  ret void
}